target datalayout = "e-m:e-p270:32:32-p271:32:32-p272:64:64-i64:64-i128:128-f80:128-n8:16:32:64-S128"
target triple = "x86_64-pc-linux-gnu"

%struct.AVAES = type { [15 x %union.av_aes_block], [2 x %union.av_aes_block], i32, ptr }
%union.av_aes_block = type { [2 x i64] }

@dec_multbl = internal global [4 x [256 x i32]] zeroinitializer, align 16
@inv_sbox = internal global [256 x i8] zeroinitializer, align 16

; Function Attrs: inlinehint nounwind uwtable
define internal void @addkey_d(ptr noundef %0, ptr noundef %1, ptr noundef %2) #5 {
  %4 = alloca ptr, align 8
  %5 = alloca ptr, align 8
  %6 = alloca ptr, align 8
  store ptr %0, ptr %4, align 8, !tbaa !9
  store ptr %1, ptr %5, align 8, !tbaa !30
  store ptr %2, ptr %6, align 8, !tbaa !30
  %7 = load ptr, ptr %5, align 8, !tbaa !30
  %8 = getelementptr inbounds [2 x i64], ptr %7, i64 0, i64 0
  %9 = load i64, ptr %8, align 8, !tbaa !16
  %10 = load ptr, ptr %6, align 8, !tbaa !30
  %11 = getelementptr inbounds [2 x i64], ptr %10, i64 0, i64 0
  %12 = load i64, ptr %11, align 8, !tbaa !16
  %13 = xor i64 %9, %12
  %14 = load ptr, ptr %4, align 8, !tbaa !9
  store i64 %13, ptr %14, align 1, !tbaa !16
  %15 = load ptr, ptr %5, align 8, !tbaa !30
  %16 = getelementptr inbounds [2 x i64], ptr %15, i64 0, i64 1
  %17 = load i64, ptr %16, align 8, !tbaa !16
  %18 = load ptr, ptr %6, align 8, !tbaa !30
  %19 = getelementptr inbounds [2 x i64], ptr %18, i64 0, i64 1
  %20 = load i64, ptr %19, align 8, !tbaa !16
  %21 = xor i64 %17, %20
  %22 = load ptr, ptr %4, align 8, !tbaa !9
  %23 = getelementptr inbounds i8, ptr %22, i64 8
  store i64 %21, ptr %23, align 1, !tbaa !16
  ret void
}

; Function Attrs: inlinehint nounwind uwtable
define internal void @addkey_s(ptr noundef %0, ptr noundef %1, ptr noundef %2) #5 {
  %4 = alloca ptr, align 8
  %5 = alloca ptr, align 8
  %6 = alloca ptr, align 8
  store ptr %0, ptr %4, align 8, !tbaa !30
  store ptr %1, ptr %5, align 8, !tbaa !9
  store ptr %2, ptr %6, align 8, !tbaa !30
  %7 = load ptr, ptr %5, align 8, !tbaa !9
  %8 = load i64, ptr %7, align 1, !tbaa !16
  %9 = load ptr, ptr %6, align 8, !tbaa !30
  %10 = getelementptr inbounds [2 x i64], ptr %9, i64 0, i64 0
  %11 = load i64, ptr %10, align 8, !tbaa !16
  %12 = xor i64 %8, %11
  %13 = load ptr, ptr %4, align 8, !tbaa !30
  %14 = getelementptr inbounds [2 x i64], ptr %13, i64 0, i64 0
  store i64 %12, ptr %14, align 8, !tbaa !16
  %15 = load ptr, ptr %5, align 8, !tbaa !9
  %16 = getelementptr inbounds i8, ptr %15, i64 8
  %17 = load i64, ptr %16, align 1, !tbaa !16
  %18 = load ptr, ptr %6, align 8, !tbaa !30
  %19 = getelementptr inbounds [2 x i64], ptr %18, i64 0, i64 1
  %20 = load i64, ptr %19, align 8, !tbaa !16
  %21 = xor i64 %17, %20
  %22 = load ptr, ptr %4, align 8, !tbaa !30
  %23 = getelementptr inbounds [2 x i64], ptr %22, i64 0, i64 1
  store i64 %21, ptr %23, align 8, !tbaa !16
  ret void
}

; Function Attrs: nounwind uwtable
define internal void @aes_decrypt(ptr noundef %0, ptr noundef %1, ptr noundef %2, i32 noundef %3, ptr noundef %4, i32 noundef %5) #0 {
  %7 = alloca ptr, align 8
  %8 = alloca ptr, align 8
  %9 = alloca ptr, align 8
  %10 = alloca i32, align 4
  %11 = alloca ptr, align 8
  %12 = alloca i32, align 4
  store ptr %0, ptr %7, align 8, !tbaa !4
  store ptr %1, ptr %8, align 8, !tbaa !9
  store ptr %2, ptr %9, align 8, !tbaa !9
  store i32 %3, ptr %10, align 4, !tbaa !11
  store ptr %4, ptr %11, align 8, !tbaa !9
  store i32 %5, ptr %12, align 4, !tbaa !11
  br label %13

13:                                               ; preds = %40, %6
  %14 = load i32, ptr %10, align 4, !tbaa !11
  %15 = add nsw i32 %14, -1
  store i32 %15, ptr %10, align 4, !tbaa !11
  %16 = icmp ne i32 %14, 0
  br i1 %16, label %17, label %52

17:                                               ; preds = %13
  %18 = load ptr, ptr %7, align 8, !tbaa !4
  %19 = getelementptr inbounds nuw %struct.AVAES, ptr %18, i32 0, i32 1
  %20 = getelementptr inbounds [2 x %union.av_aes_block], ptr %19, i64 0, i64 1
  %21 = load ptr, ptr %9, align 8, !tbaa !9
  %22 = load ptr, ptr %7, align 8, !tbaa !4
  %23 = getelementptr inbounds nuw %struct.AVAES, ptr %22, i32 0, i32 0
  %24 = load i32, ptr %12, align 4, !tbaa !11
  %25 = sext i32 %24 to i64
  %26 = getelementptr inbounds [15 x %union.av_aes_block], ptr %23, i64 0, i64 %25
  call void @addkey_s(ptr noundef %20, ptr noundef %21, ptr noundef %26)
  %27 = load ptr, ptr %7, align 8, !tbaa !4
  call void @aes_crypt(ptr noundef %27, i32 noundef 0, ptr noundef @inv_sbox, ptr noundef @dec_multbl)
  %28 = load ptr, ptr %11, align 8, !tbaa !9
  %29 = icmp ne ptr %28, null
  br i1 %29, label %30, label %40

30:                                               ; preds = %17
  %31 = load ptr, ptr %7, align 8, !tbaa !4
  %32 = getelementptr inbounds nuw %struct.AVAES, ptr %31, i32 0, i32 1
  %33 = getelementptr inbounds [2 x %union.av_aes_block], ptr %32, i64 0, i64 0
  %34 = load ptr, ptr %11, align 8, !tbaa !9
  %35 = load ptr, ptr %7, align 8, !tbaa !4
  %36 = getelementptr inbounds nuw %struct.AVAES, ptr %35, i32 0, i32 1
  %37 = getelementptr inbounds [2 x %union.av_aes_block], ptr %36, i64 0, i64 0
  call void @addkey_s(ptr noundef %33, ptr noundef %34, ptr noundef %37)
  %38 = load ptr, ptr %11, align 8, !tbaa !9
  %39 = load ptr, ptr %9, align 8, !tbaa !9
  call void @llvm.memcpy.p0.p0.i64(ptr align 1 %38, ptr align 1 %39, i64 16, i1 false)
  br label %40

40:                                               ; preds = %30, %17
  %41 = load ptr, ptr %8, align 8, !tbaa !9
  %42 = load ptr, ptr %7, align 8, !tbaa !4
  %43 = getelementptr inbounds nuw %struct.AVAES, ptr %42, i32 0, i32 1
  %44 = getelementptr inbounds [2 x %union.av_aes_block], ptr %43, i64 0, i64 0
  %45 = load ptr, ptr %7, align 8, !tbaa !4
  %46 = getelementptr inbounds nuw %struct.AVAES, ptr %45, i32 0, i32 0
  %47 = getelementptr inbounds [15 x %union.av_aes_block], ptr %46, i64 0, i64 0
  call void @addkey_d(ptr noundef %41, ptr noundef %44, ptr noundef %47)
  %48 = load ptr, ptr %9, align 8, !tbaa !9
  %49 = getelementptr inbounds i8, ptr %48, i64 16
  store ptr %49, ptr %9, align 8, !tbaa !9
  %50 = load ptr, ptr %8, align 8, !tbaa !9
  %51 = getelementptr inbounds i8, ptr %50, i64 16
  store ptr %51, ptr %8, align 8, !tbaa !9
  br label %13, !llvm.loop !26

52:                                               ; preds = %13
  ret void
}